target datalayout = "e-m:e-p270:32:32-p271:32:32-p272:64:64-i64:64-i128:128-f80:128-n8:16:32:64-S128"
target triple = "x86_64-pc-linux-gnu"

%struct.VmncContext = type { ptr, ptr, i32, i32, i32, [768 x i8], i32, i32, %struct.GetByteContext, i32, i32, i32, i32, i32, i32, ptr, ptr, ptr }
%struct.GetByteContext = type { ptr, ptr, ptr }

; Function Attrs: nounwind uwtable
define internal void @reset_buffers(ptr noundef %0) #1 {
  %2 = alloca ptr, align 8
  store ptr %0, ptr %2, align 8, !tbaa !29
  %3 = load ptr, ptr %2, align 8, !tbaa !29
  %4 = getelementptr inbounds nuw %struct.VmncContext, ptr %3, i32 0, i32 15
  call void @av_freep(ptr noundef %4)
  %5 = load ptr, ptr %2, align 8, !tbaa !29
  %6 = getelementptr inbounds nuw %struct.VmncContext, ptr %5, i32 0, i32 16
  call void @av_freep(ptr noundef %6)
  %7 = load ptr, ptr %2, align 8, !tbaa !29
  %8 = getelementptr inbounds nuw %struct.VmncContext, ptr %7, i32 0, i32 17
  call void @av_freep(ptr noundef %8)
  %9 = load ptr, ptr %2, align 8, !tbaa !29
  %10 = getelementptr inbounds nuw %struct.VmncContext, ptr %9, i32 0, i32 10
  store i32 0, ptr %10, align 4, !tbaa !64
  %11 = load ptr, ptr %2, align 8, !tbaa !29
  %12 = getelementptr inbounds nuw %struct.VmncContext, ptr %11, i32 0, i32 9
  store i32 0, ptr %12, align 8, !tbaa !62
  %13 = load ptr, ptr %2, align 8, !tbaa !29
  %14 = getelementptr inbounds nuw %struct.VmncContext, ptr %13, i32 0, i32 14
  store i32 0, ptr %14, align 4, !tbaa !69
  %15 = load ptr, ptr %2, align 8, !tbaa !29
  %16 = getelementptr inbounds nuw %struct.VmncContext, ptr %15, i32 0, i32 13
  store i32 0, ptr %16, align 8, !tbaa !68
  ret void
}