; Function Attrs: nounwind uwtable
define internal fastcc void @reset_buffers(ptr noundef %0) unnamed_addr #1 {
  %2 = getelementptr inbounds nuw i8, ptr %0, i64 856
  tail call void @av_freep(ptr noundef nonnull %2) #7
  %3 = getelementptr inbounds nuw i8, ptr %0, i64 864
  tail call void @av_freep(ptr noundef nonnull %3) #7
  %4 = getelementptr inbounds nuw i8, ptr %0, i64 872
  tail call void @av_freep(ptr noundef nonnull %4) #7
  %5 = getelementptr inbounds nuw i8, ptr %0, i64 836
  store i32 0, ptr %5, align 4, !tbaa !58
  %6 = getelementptr inbounds nuw i8, ptr %0, i64 832
  store i32 0, ptr %6, align 8, !tbaa !56
  %7 = getelementptr inbounds nuw i8, ptr %0, i64 852
  store i32 0, ptr %7, align 4, !tbaa !64
  %8 = getelementptr inbounds nuw i8, ptr %0, i64 848
  store i32 0, ptr %8, align 8, !tbaa !63
  ret void
}